; Function Attrs: mustprogress nofree norecurse nosync nounwind willreturn memory(argmem: read) uwtable
define noundef double @_ZNK4base4Time9ToDoubleTEv(ptr noundef nonnull readonly align 8 captures(none) dereferenceable(8) %0) local_unnamed_addr #1 align 2 {
  %2 = load i64, ptr %0, align 8, !tbaa !9
  switch i64 %2, label %3 [
    i64 0, label %8
    i64 9223372036854775807, label %.fold.split
  ]

3:                                                ; preds = %1
  %4 = load i64, ptr @_ZN4base4Time26kTimeTToMicrosecondsOffsetE, align 8, !tbaa !8
  %5 = sub nsw i64 %2, %4
  %6 = sitofp i64 %5 to double
  %7 = fdiv double %6, 1.000000e+06
  br label %8

.fold.split:                                      ; preds = %1
  br label %8

8:                                                ; preds = %1, %.fold.split, %3
  %.0 = phi double [ %7, %3 ], [ 0.000000e+00, %1 ], [ 0x7FF0000000000000, %.fold.split ]
  ret double %.0
}